; Function Attrs: nounwind uwtable
define void @Cec2_ManSaveCis(ptr noundef readonly captures(none) %0) local_unnamed_addr #2 {
  %2 = getelementptr inbounds nuw i8, ptr %0, i64 816
  %3 = load i32, ptr %2, align 8
  %4 = icmp sgt i32 %3, 0
  br i1 %4, label %.preheader.lr.ph, label %._crit_edge

.preheader.lr.ph:                                 ; preds = %1
  %5 = getelementptr inbounds nuw i8, ptr %0, i64 64
  %6 = getelementptr inbounds nuw i8, ptr %0, i64 848
  %7 = getelementptr i8, ptr %0, i64 832
  %8 = load ptr, ptr %5, align 8
  %9 = getelementptr i8, ptr %8, i64 4
  %10 = load i32, ptr %9, align 4
  %11 = icmp sgt i32 %10, 0
  br i1 %11, label %.preheader, label %._crit_edge

.preheader:                                       ; preds = %.preheader.lr.ph, %.critedge
  %12 = phi i32 [ %63, %.critedge ], [ %3, %.preheader.lr.ph ]
  %13 = phi ptr [ %64, %.critedge ], [ %8, %.preheader.lr.ph ]
  %indvars.iv25 = phi i64 [ %indvars.iv.next26, %.critedge ], [ 0, %.preheader.lr.ph ]
  %14 = getelementptr i8, ptr %13, i64 4
  %.val1419 = load i32, ptr %14, align 4
  %15 = icmp sgt i32 %.val1419, 0
  br i1 %15, label %.lr.ph, label %.critedge

.lr.ph:                                           ; preds = %.preheader, %Vec_WrdPush.exit
  %16 = phi ptr [ %59, %Vec_WrdPush.exit ], [ %13, %.preheader ]
  %indvars.iv = phi i64 [ %indvars.iv.next, %Vec_WrdPush.exit ], [ 0, %.preheader ]
  %17 = getelementptr i8, ptr %16, i64 8
  %.val16.val = load ptr, ptr %17, align 8
  %18 = getelementptr inbounds nuw i32, ptr %.val16.val, i64 %indvars.iv
  %19 = load i32, ptr %18, align 4
  %.not = icmp eq i32 %19, 0
  %.pre.pre28 = load i32, ptr %2, align 8
  br i1 %.not, label %.critedge, label %20

20:                                               ; preds = %.lr.ph
  %21 = load ptr, ptr %6, align 8
  %.val18 = load ptr, ptr %7, align 8
  %22 = getelementptr i8, ptr %.val18, i64 8
  %.val18.val = load ptr, ptr %22, align 8
  %23 = mul nsw i32 %.pre.pre28, %19
  %24 = sext i32 %23 to i64
  %25 = getelementptr inbounds i64, ptr %.val18.val, i64 %24
  %26 = getelementptr inbounds nuw i64, ptr %25, i64 %indvars.iv25
  %27 = load i64, ptr %26, align 8
  %28 = getelementptr inbounds nuw i8, ptr %21, i64 4
  %29 = load i32, ptr %28, align 4
  %30 = load i32, ptr %21, align 8
  %31 = icmp eq i32 %29, %30
  br i1 %31, label %32, label %.Vec_WrdGrow.exit10_crit_edge.i

.Vec_WrdGrow.exit10_crit_edge.i:                  ; preds = %20
  %.phi.trans.insert.i = getelementptr inbounds nuw i8, ptr %21, i64 8
  %.pre.i = load ptr, ptr %.phi.trans.insert.i, align 8
  br label %Vec_WrdPush.exit

32:                                               ; preds = %20
  %33 = icmp slt i32 %29, 16
  br i1 %33, label %34, label %42

34:                                               ; preds = %32
  %35 = getelementptr inbounds nuw i8, ptr %21, i64 8
  %36 = load ptr, ptr %35, align 8
  %.not9.i.i = icmp eq ptr %36, null
  br i1 %.not9.i.i, label %39, label %37

37:                                               ; preds = %34
  %38 = tail call dereferenceable_or_null(128) ptr @realloc(ptr noundef nonnull %36, i64 noundef 128) #23
  br label %Vec_WrdGrow.exit.i

39:                                               ; preds = %34
  %40 = tail call noalias dereferenceable_or_null(128) ptr @malloc(i64 noundef 128) #22
  br label %Vec_WrdGrow.exit.i

Vec_WrdGrow.exit.i:                               ; preds = %39, %37
  %41 = phi ptr [ %38, %37 ], [ %40, %39 ]
  store ptr %41, ptr %35, align 8
  store i32 16, ptr %21, align 8
  br label %Vec_WrdPush.exit

42:                                               ; preds = %32
  %43 = shl nuw nsw i32 %29, 1
  %44 = getelementptr inbounds nuw i8, ptr %21, i64 8
  %45 = load ptr, ptr %44, align 8
  %.not9.i9.i = icmp eq ptr %45, null
  %46 = zext nneg i32 %43 to i64
  %47 = shl nuw nsw i64 %46, 3
  br i1 %.not9.i9.i, label %50, label %48

48:                                               ; preds = %42
  %49 = tail call ptr @realloc(ptr noundef nonnull %45, i64 noundef %47) #23
  br label %52

50:                                               ; preds = %42
  %51 = tail call noalias ptr @malloc(i64 noundef %47) #22
  br label %52

52:                                               ; preds = %50, %48
  %53 = phi ptr [ %49, %48 ], [ %51, %50 ]
  store ptr %53, ptr %44, align 8
  store i32 %43, ptr %21, align 8
  br label %Vec_WrdPush.exit

Vec_WrdPush.exit:                                 ; preds = %.Vec_WrdGrow.exit10_crit_edge.i, %Vec_WrdGrow.exit.i, %52
  %54 = phi ptr [ %.pre.i, %.Vec_WrdGrow.exit10_crit_edge.i ], [ %53, %52 ], [ %41, %Vec_WrdGrow.exit.i ]
  %55 = load i32, ptr %28, align 4
  %56 = add nsw i32 %55, 1
  store i32 %56, ptr %28, align 4
  %57 = sext i32 %55 to i64
  %58 = getelementptr inbounds i64, ptr %54, i64 %57
  store i64 %27, ptr %58, align 8
  %indvars.iv.next = add nuw nsw i64 %indvars.iv, 1
  %59 = load ptr, ptr %5, align 8
  %60 = getelementptr i8, ptr %59, i64 4
  %.val14 = load i32, ptr %60, align 4
  %61 = sext i32 %.val14 to i64
  %62 = icmp slt i64 %indvars.iv.next, %61
  br i1 %62, label %.lr.ph, label %Vec_WrdPush.exit..critedge.loopexit_crit_edge, !llvm.loop !21

Vec_WrdPush.exit..critedge.loopexit_crit_edge:    ; preds = %Vec_WrdPush.exit
  %.pre.pre = load i32, ptr %2, align 8
  br label %.critedge

.critedge:                                        ; preds = %.lr.ph, %Vec_WrdPush.exit..critedge.loopexit_crit_edge, %.preheader
  %63 = phi i32 [ %12, %.preheader ], [ %.pre.pre, %Vec_WrdPush.exit..critedge.loopexit_crit_edge ], [ %.pre.pre28, %.lr.ph ]
  %64 = phi ptr [ %13, %.preheader ], [ %59, %Vec_WrdPush.exit..critedge.loopexit_crit_edge ], [ %16, %.lr.ph ]
  %indvars.iv.next26 = add nuw nsw i64 %indvars.iv25, 1
  %65 = sext i32 %63 to i64
  %66 = icmp slt i64 %indvars.iv.next26, %65
  br i1 %66, label %.preheader, label %._crit_edge, !llvm.loop !22

._crit_edge:                                      ; preds = %.critedge, %.preheader.lr.ph, %1
  ret void
}